; Function Attrs: nounwind uwtable
define hidden void @_PyErr_SetRaisedException(ptr noundef captures(none) %0, ptr noundef %1) local_unnamed_addr #0 {
  %3 = getelementptr inbounds nuw i8, ptr %0, i64 112
  %4 = load ptr, ptr %3, align 8, !tbaa !4
  store ptr %1, ptr %3, align 8, !tbaa !4
  %.not.i = icmp eq ptr %4, null
  br i1 %.not.i, label %Py_XDECREF.exit, label %5

5:                                                ; preds = %2
  %6 = load i32, ptr %4, align 8, !tbaa !20
  %.not.i.i = icmp sgt i32 %6, -1
  br i1 %.not.i.i, label %7, label %Py_XDECREF.exit

7:                                                ; preds = %5
  %8 = add nsw i32 %6, -1
  store i32 %8, ptr %4, align 8, !tbaa !20
  %9 = icmp eq i32 %8, 0
  br i1 %9, label %10, label %Py_XDECREF.exit

10:                                               ; preds = %7
  tail call void @_Py_Dealloc(ptr noundef nonnull %4) #17
  br label %Py_XDECREF.exit

Py_XDECREF.exit:                                  ; preds = %2, %5, %7, %10
  ret void
}